; Function Attrs: mustprogress uwtable
define void @_ZN4cvc56parser10SymManager16setLastSynthNameERKNSt7__cxx1112basic_stringIcSt11char_traitsIcESaIcEEE(ptr nocapture noundef nonnull readonly align 8 dereferenceable(56) %this, ptr noundef nonnull align 8 dereferenceable(32) %name) local_unnamed_addr #3 align 2 {
entry:
  %d_implementation = getelementptr inbounds i8, ptr %this, i64 8
  %0 = load ptr, ptr %d_implementation, align 8
  %d_pScope.i.i.i.i = getelementptr inbounds i8, ptr %0, i64 520
  %1 = load ptr, ptr %d_pScope.i.i.i.i, align 8
  %2 = load ptr, ptr %1, align 8
  %_M_finish.i.i.i.i.i.i.i.i = getelementptr inbounds i8, ptr %2, i64 16
  %3 = load ptr, ptr %_M_finish.i.i.i.i.i.i.i.i, align 8
  %add.ptr.i.i.i.i.i.i.i.i = getelementptr inbounds i8, ptr %3, i64 -8
  %4 = load ptr, ptr %add.ptr.i.i.i.i.i.i.i.i, align 8
  %cmp.i.i.i.i.i = icmp eq ptr %4, %1
  br i1 %cmp.i.i.i.i.i, label %_ZN4cvc56parser10SymManager14Implementation16setLastSynthNameERKNSt7__cxx1112basic_stringIcSt11char_traitsIcESaIcEEE.exit, label %if.then.i.i.i.i

if.then.i.i.i.i:                                  ; preds = %entry
  %d_lastSynthName.i = getelementptr inbounds i8, ptr %0, i64 512
  tail call void @_ZN4cvc57context10ContextObj6updateEv(ptr noundef nonnull align 8 dereferenceable(40) %d_lastSynthName.i)
  br label %_ZN4cvc56parser10SymManager14Implementation16setLastSynthNameERKNSt7__cxx1112basic_stringIcSt11char_traitsIcESaIcEEE.exit

_ZN4cvc56parser10SymManager14Implementation16setLastSynthNameERKNSt7__cxx1112basic_stringIcSt11char_traitsIcESaIcEEE.exit: ; preds = %entry, %if.then.i.i.i.i
  %d_data.i.i.i = getelementptr inbounds i8, ptr %0, i64 552
  %call.i.i.i = tail call noundef nonnull align 8 dereferenceable(32) ptr @_ZNSt7__cxx1112basic_stringIcSt11char_traitsIcESaIcEEaSERKS4_(ptr noundef nonnull align 8 dereferenceable(32) %d_data.i.i.i, ptr noundef nonnull align 8 dereferenceable(32) %name)
  ret void
}